target datalayout = "e-m:e-p270:32:32-p271:32:32-p272:64:64-i64:64-i128:128-f80:128-n8:16:32:64-S128"
target triple = "x86_64-pc-linux-gnu"

%struct.MEMO = type { i64, i64, i64, i64, %union.anon.1 }
%union.anon.1 = type { i64 }

; Function Attrs: inlinehint nounwind sspstrong uwtable
define internal ptr @MEMO_NEW(i64 noundef %0, i64 noundef %1, i64 noundef %2) #3 {
  %4 = alloca i64, align 8
  %5 = alloca i64, align 8
  %6 = alloca i64, align 8
  %7 = alloca ptr, align 8
  store i64 %0, ptr %4, align 8, !tbaa !14
  store i64 %1, ptr %5, align 8, !tbaa !14
  store i64 %2, ptr %6, align 8, !tbaa !14
  call void @llvm.lifetime.start.p0(i64 8, ptr %7) #22
  %8 = call i64 @rb_imemo_new(i32 noundef 5, i64 noundef 0, i64 noundef 40)
  %9 = inttoptr i64 %8 to ptr
  store ptr %9, ptr %7, align 8, !tbaa !34
  %10 = load i64, ptr %4, align 8, !tbaa !14
  %11 = load ptr, ptr %7, align 8, !tbaa !34
  %12 = getelementptr inbounds nuw %struct.MEMO, ptr %11, i32 0, i32 2
  store i64 %10, ptr %12, align 8, !tbaa !14
  %13 = load i64, ptr %5, align 8, !tbaa !14
  %14 = load ptr, ptr %7, align 8, !tbaa !34
  %15 = getelementptr inbounds nuw %struct.MEMO, ptr %14, i32 0, i32 3
  store i64 %13, ptr %15, align 8, !tbaa !14
  %16 = load i64, ptr %6, align 8, !tbaa !14
  %17 = load ptr, ptr %7, align 8, !tbaa !34
  %18 = getelementptr inbounds nuw %struct.MEMO, ptr %17, i32 0, i32 4
  store i64 %16, ptr %18, align 8, !tbaa !31
  %19 = load ptr, ptr %7, align 8, !tbaa !34
  call void @llvm.lifetime.end.p0(i64 8, ptr %7) #22
  ret ptr %19
}

; Function Attrs: nounwind sspstrong uwtable
define internal i64 @enum_drop_while(i64 noundef %0) #0 {
  %2 = alloca i64, align 8
  %3 = alloca i64, align 8
  %4 = alloca i64, align 8
  %5 = alloca ptr, align 8
  %6 = alloca i64, align 8
  %7 = alloca i32, align 4
  store i64 %0, ptr %3, align 8, !tbaa !14
  call void @llvm.lifetime.start.p0(i64 8, ptr %4) #22
  call void @llvm.lifetime.start.p0(i64 8, ptr %5) #22
  br label %8

8:                                                ; preds = %1
  %9 = call i32 @rb_block_given_p()
  %10 = icmp ne i32 %9, 0
  br i1 %10, label %17, label %11

11:                                               ; preds = %8
  %12 = load i64, ptr %3, align 8, !tbaa !14
  %13 = call i64 @rb_frame_this_func()
  %14 = call i64 @rb_id2sym(i64 noundef %13)
  store i64 %14, ptr %6, align 8, !tbaa !14
  %15 = load i64, ptr %6, align 8, !tbaa !14
  %16 = call i64 @rb_enumeratorize_with_size(i64 noundef %12, i64 noundef %15, i32 noundef 0, ptr noundef null, ptr noundef null)
  store i64 %16, ptr %2, align 8
  store i32 1, ptr %7, align 4
  br label %28

17:                                               ; preds = %8
  br label %18

18:                                               ; preds = %17
  br label %19

19:                                               ; preds = %18
  %20 = call i64 @rb_ary_new()
  store i64 %20, ptr %4, align 8, !tbaa !14
  %21 = load i64, ptr %4, align 8, !tbaa !14
  %22 = call ptr @MEMO_NEW(i64 noundef %21, i64 noundef 0, i64 noundef 0)
  store ptr %22, ptr %5, align 8, !tbaa !34
  %23 = load i64, ptr %3, align 8, !tbaa !14
  %24 = load ptr, ptr %5, align 8, !tbaa !34
  %25 = ptrtoint ptr %24 to i64
  %26 = call i64 @rb_block_call(i64 noundef %23, i64 noundef 3073, i32 noundef 0, ptr noundef null, ptr noundef @drop_while_i, i64 noundef %25)
  %27 = load i64, ptr %4, align 8, !tbaa !14
  store i64 %27, ptr %2, align 8
  store i32 1, ptr %7, align 4
  br label %28

28:                                               ; preds = %19, %11
  call void @llvm.lifetime.end.p0(i64 8, ptr %5) #22
  call void @llvm.lifetime.end.p0(i64 8, ptr %4) #22
  %29 = load i64, ptr %2, align 8
  ret i64 %29
}